target datalayout = "e-m:e-p270:32:32-p271:32:32-p272:64:64-i64:64-i128:128-f80:128-n8:16:32:64-S128"
target triple = "x86_64-pc-linux-gnu"

%class.Statement = type { ptr, i32, i32, ptr, ptr }
%class.StatementContinue = type { %class.Statement, ptr, ptr }

; Function Attrs: mustprogress nounwind uwtable
define linkonce_odr dso_local noundef i32 @_ZNK9Statement8get_typeEv(ptr noundef nonnull align 8 dereferenceable(32) %0) #5 comdat align 2 {
  %2 = alloca ptr, align 8
  store ptr %0, ptr %2, align 8
  %3 = load ptr, ptr %2, align 8
  %4 = getelementptr inbounds %class.Statement, ptr %3, i32 0, i32 1
  %5 = load i32, ptr %4, align 8
  ret i32 %5
}

; Function Attrs: mustprogress uwtable
define dso_local void @_ZN17StatementContinueC2ERKS_(ptr noundef nonnull align 8 dereferenceable(48) %0, ptr noundef nonnull align 8 dereferenceable(48) %1) unnamed_addr #4 align 2 {
  %3 = alloca ptr, align 8
  %4 = alloca ptr, align 8
  store ptr %0, ptr %3, align 8
  store ptr %1, ptr %4, align 8
  %5 = load ptr, ptr %3, align 8
  %6 = load ptr, ptr %4, align 8
  %7 = call noundef i32 @_ZNK9Statement8get_typeEv(ptr noundef nonnull align 8 dereferenceable(32) %6)
  %8 = load ptr, ptr %4, align 8
  %9 = getelementptr inbounds %class.Statement, ptr %8, i32 0, i32 4
  %10 = load ptr, ptr %9, align 8
  call void @_ZN9StatementC2E14eStatementTypeP5Block(ptr noundef nonnull align 8 dereferenceable(32) %5, i32 noundef %7, ptr noundef %10)
  store ptr getelementptr inbounds ({ [12 x ptr] }, ptr @_ZTV17StatementContinue, i32 0, i32 0, i32 2), ptr %5, align 8
  %11 = getelementptr inbounds %class.StatementContinue, ptr %5, i32 0, i32 1
  %12 = load ptr, ptr %4, align 8
  %13 = getelementptr inbounds %class.StatementContinue, ptr %12, i32 0, i32 1
  %14 = load ptr, ptr %13, align 8
  store ptr %14, ptr %11, align 8
  %15 = getelementptr inbounds %class.StatementContinue, ptr %5, i32 0, i32 2
  %16 = load ptr, ptr %4, align 8
  %17 = getelementptr inbounds %class.StatementContinue, ptr %16, i32 0, i32 2
  %18 = load ptr, ptr %17, align 8
  store ptr %18, ptr %15, align 8
  ret void
}